target datalayout = "e-m:e-p270:32:32-p271:32:32-p272:64:64-i64:64-i128:128-f80:128-n8:16:32:64-S128"
target triple = "x86_64-unknown-linux-gnu"

%struct.rlimit = type { i64, i64 }

; Function Attrs: mustprogress nounwind uwtable
define hidden void @_ZN4cvc54main13setNoLimitCPUEv() #4 {
entry:
  %rlc = alloca %struct.rlimit, align 8
  %st = alloca i32, align 4
  %call = call i32 @getrlimit(i32 noundef 0, ptr noundef %rlc) #3
  store i32 %call, ptr %st, align 4
  %0 = load i32, ptr %st, align 4
  %cmp = icmp eq i32 %0, 0
  br i1 %cmp, label %if.then, label %if.end

if.then:                                          ; preds = %entry
  %rlim_max = getelementptr inbounds %struct.rlimit, ptr %rlc, i32 0, i32 1
  %1 = load i64, ptr %rlim_max, align 8
  %rlim_cur = getelementptr inbounds %struct.rlimit, ptr %rlc, i32 0, i32 0
  store i64 %1, ptr %rlim_cur, align 8
  %call1 = call i32 @setrlimit(i32 noundef 0, ptr noundef %rlc) #3
  br label %if.end

if.end:                                           ; preds = %if.then, %entry
  ret void
}