; Function Attrs: mustprogress nounwind uwtable
define hidden void @_ZN4cvc54main13setNoLimitCPUEv() local_unnamed_addr #3 {
entry:
  %rlc = alloca %struct.rlimit, align 8
  %call = call i32 @getrlimit(i32 noundef 0, ptr noundef nonnull %rlc) #15
  %cmp = icmp eq i32 %call, 0
  br i1 %cmp, label %if.then, label %if.end

if.then:                                          ; preds = %entry
  %rlim_max = getelementptr inbounds i8, ptr %rlc, i64 8
  %0 = load i64, ptr %rlim_max, align 8
  store i64 %0, ptr %rlc, align 8
  %call1 = call i32 @setrlimit(i32 noundef 0, ptr noundef nonnull %rlc) #15
  br label %if.end

if.end:                                           ; preds = %if.then, %entry
  ret void
}